(idata.Gesture
DataSet
p0
(dp1
S'gestures'
p2
(dp3
S'yawn'
p4
(idata.Gesture
GestureSet
p5
(dp6
S'label'
p7
g4
sS'sequences'
p8
(lp9
sbsS'run'
p10
(idata.Gesture
GestureSet
p11
(dp12
g7
g10
sg8
(lp13
sbsS'wave'
p14
(idata.Gesture
GestureSet
p15
(dp16
g7
g14
sg8
(lp17
sbssS'name'
p18
S'Practice2'
p19
sS'filepath'
p20
S'data/sets/practice2_3.pkl'
p21
sb.