(idata.Gesture
DataSet
p0
(dp1
S'gestures'
p2
(dp3
S'wave'
p4
(idata.Gesture
GestureSet
p5
(dp6
S'label'
p7
g4
sS'sequences'
p8
(lp9
sbssS'name'
p10
S'Practice2'
p11
sS'filepath'
p12
S'data/sets/practice2_3.pkl'
p13
sb.